; Function Attrs: uwtable
define noundef zeroext i1 @_ZTv0_n64_NK5arrow2io22CompressedOutputStream6closedEv(ptr nocapture noundef readonly %this) unnamed_addr #8 align 2 personality ptr @__gxx_personality_v0 {
entry:
  %0 = load ptr, ptr %this, align 8
  %1 = getelementptr inbounds i8, ptr %0, i64 -64
  %2 = load i64, ptr %1, align 8
  %3 = getelementptr inbounds i8, ptr %this, i64 %2
  %impl_.i = getelementptr inbounds i8, ptr %3, i64 8
  %4 = load ptr, ptr %impl_.i, align 8
  %lock_.i.i = getelementptr inbounds i8, ptr %4, i64 80
  %call1.i.i.i.i.i = tail call noundef i32 @pthread_mutex_lock(ptr noundef nonnull %lock_.i.i) #21
  %tobool.not.i.i.i.i = icmp eq i32 %call1.i.i.i.i.i, 0
  br i1 %tobool.not.i.i.i.i, label %_ZNK5arrow2io22CompressedOutputStream6closedEv.exit, label %if.then.i.i.i.i

if.then.i.i.i.i:                                  ; preds = %entry
  tail call void @_ZSt20__throw_system_errori(i32 noundef %call1.i.i.i.i.i) #24
  unreachable

_ZNK5arrow2io22CompressedOutputStream6closedEv.exit: ; preds = %entry
  %is_open_.i.i = getelementptr inbounds i8, ptr %4, i64 24
  %5 = load i8, ptr %is_open_.i.i, align 8
  %6 = and i8 %5, 1
  %tobool.not.i.i = icmp eq i8 %6, 0
  %call1.i.i.i1.i.i = tail call noundef i32 @pthread_mutex_unlock(ptr noundef nonnull %lock_.i.i) #21
  ret i1 %tobool.not.i.i
}